target datalayout = "e-m:e-p270:32:32-p271:32:32-p272:64:64-i64:64-i128:128-f80:128-n8:16:32:64-S128"
target triple = "x86_64-pc-linux-gnu"

%struct.ssl_st = type { i32, i16, i16, ptr, ptr, ptr, ptr, ptr, i32, i32, ptr, ptr, i32, i32, ptr, ptr, ptr, ptr, ptr, ptr, ptr, ptr, i32, i32, [32 x i8], ptr, ptr, ptr, ptr, ptr, ptr, ptr, i64, %struct.crypto_ex_data_st, ptr, i32, i32, i32, i32, i16, ptr, i32, i64, ptr, ptr, ptr, ptr, ptr, ptr, i32, i32, ptr, ptr, i8, i8, i32 }
%struct.crypto_ex_data_st = type { ptr }
%struct.ssl_ctx_st = type { ptr, %union.crypto_mutex_st, i16, i16, ptr, ptr, ptr, ptr, ptr, ptr, i64, ptr, ptr, i32, i32, i64, ptr, ptr, ptr, i32, ptr, ptr, ptr, ptr, ptr, ptr, %struct.crypto_ex_data_st, ptr, ptr, ptr, ptr, i32, i32, i32, ptr, ptr, ptr, i32, i32, [32 x i8], ptr, ptr, ptr, ptr, i16, ptr, ptr, [16 x i8], [16 x i8], [16 x i8], ptr, ptr, ptr, ptr, i8, ptr, ptr, ptr, ptr, ptr, ptr, ptr, i32, ptr, i64, ptr, ptr, ptr, i64, ptr, i64, ptr, ptr, i8, ptr, i32 }
%union.crypto_mutex_st = type { double, [48 x i8] }
%struct.ssl_protocol_method_st = type { i8, ptr, ptr, ptr, ptr, ptr, ptr, ptr, ptr, ptr, ptr, ptr, i32, ptr, ptr }
%struct.cbb_st = type { ptr, ptr, i64, i8, i8, i8 }
%struct.buf_mem_st = type { i64, ptr, i64 }

@.str = private unnamed_addr constant [117 x i8] c"generated/home/dtcxzyw/WorkSpace/Projects/compilers/llvm-opt-benchmark/bench/libquic/libquic/boringssl/ssl/s3_srvr.c\00", align 1

; Function Attrs: nounwind uwtable
define hidden i32 @ssl3_send_certificate_status(ptr noundef %0) #0 {
  %2 = alloca i32, align 4
  %3 = alloca ptr, align 8
  %4 = alloca %struct.cbb_st, align 8
  %5 = alloca %struct.cbb_st, align 8
  %6 = alloca i64, align 8
  %7 = alloca i32, align 4
  store ptr %0, ptr %3, align 8, !tbaa !6
  %8 = load ptr, ptr %3, align 8, !tbaa !6
  %9 = getelementptr inbounds nuw %struct.ssl_st, ptr %8, i32 0, i32 9
  %10 = load i32, ptr %9, align 4, !tbaa !48
  %11 = icmp eq i32 %10, 8704
  br i1 %11, label %12, label %78

12:                                               ; preds = %1
  call void @llvm.lifetime.start.p0(i64 32, ptr %4) #9
  call void @llvm.lifetime.start.p0(i64 32, ptr %5) #9
  call void @llvm.lifetime.start.p0(i64 8, ptr %6) #9
  call void @CBB_zero(ptr noundef %4)
  %13 = load ptr, ptr %3, align 8, !tbaa !6
  %14 = getelementptr inbounds nuw %struct.ssl_st, ptr %13, i32 0, i32 10
  %15 = load ptr, ptr %14, align 8, !tbaa !49
  %16 = getelementptr inbounds nuw %struct.buf_mem_st, ptr %15, i32 0, i32 1
  %17 = load ptr, ptr %16, align 8, !tbaa !95
  %18 = load ptr, ptr %3, align 8, !tbaa !6
  %19 = getelementptr inbounds nuw %struct.ssl_st, ptr %18, i32 0, i32 3
  %20 = load ptr, ptr %19, align 8, !tbaa !76
  %21 = getelementptr inbounds nuw %struct.ssl_protocol_method_st, ptr %20, i32 0, i32 12
  %22 = load i32, ptr %21, align 8, !tbaa !137
  %23 = zext i32 %22 to i64
  %24 = getelementptr inbounds nuw i8, ptr %17, i64 %23
  %25 = load ptr, ptr %3, align 8, !tbaa !6
  %26 = getelementptr inbounds nuw %struct.ssl_st, ptr %25, i32 0, i32 10
  %27 = load ptr, ptr %26, align 8, !tbaa !49
  %28 = getelementptr inbounds nuw %struct.buf_mem_st, ptr %27, i32 0, i32 2
  %29 = load i64, ptr %28, align 8, !tbaa !97
  %30 = load ptr, ptr %3, align 8, !tbaa !6
  %31 = getelementptr inbounds nuw %struct.ssl_st, ptr %30, i32 0, i32 3
  %32 = load ptr, ptr %31, align 8, !tbaa !76
  %33 = getelementptr inbounds nuw %struct.ssl_protocol_method_st, ptr %32, i32 0, i32 12
  %34 = load i32, ptr %33, align 8, !tbaa !137
  %35 = zext i32 %34 to i64
  %36 = sub i64 %29, %35
  %37 = call i32 @CBB_init_fixed(ptr noundef %4, ptr noundef %24, i64 noundef %36)
  %38 = icmp ne i32 %37, 0
  br i1 %38, label %39, label %71

39:                                               ; preds = %12
  %40 = call i32 @CBB_add_u8(ptr noundef %4, i8 noundef zeroext 1)
  %41 = icmp ne i32 %40, 0
  br i1 %41, label %42, label %71

42:                                               ; preds = %39
  %43 = call i32 @CBB_add_u24_length_prefixed(ptr noundef %4, ptr noundef %5)
  %44 = icmp ne i32 %43, 0
  br i1 %44, label %45, label %71

45:                                               ; preds = %42
  %46 = load ptr, ptr %3, align 8, !tbaa !6
  %47 = getelementptr inbounds nuw %struct.ssl_st, ptr %46, i32 0, i32 31
  %48 = load ptr, ptr %47, align 8, !tbaa !40
  %49 = getelementptr inbounds nuw %struct.ssl_ctx_st, ptr %48, i32 0, i32 69
  %50 = load ptr, ptr %49, align 8, !tbaa !139
  %51 = load ptr, ptr %3, align 8, !tbaa !6
  %52 = getelementptr inbounds nuw %struct.ssl_st, ptr %51, i32 0, i32 31
  %53 = load ptr, ptr %52, align 8, !tbaa !40
  %54 = getelementptr inbounds nuw %struct.ssl_ctx_st, ptr %53, i32 0, i32 70
  %55 = load i64, ptr %54, align 8, !tbaa !140
  %56 = call i32 @CBB_add_bytes(ptr noundef %5, ptr noundef %50, i64 noundef %55)
  %57 = icmp ne i32 %56, 0
  br i1 %57, label %58, label %71

58:                                               ; preds = %45
  %59 = call i32 @CBB_finish(ptr noundef %4, ptr noundef null, ptr noundef %6)
  %60 = icmp ne i32 %59, 0
  br i1 %60, label %61, label %71

61:                                               ; preds = %58
  %62 = load ptr, ptr %3, align 8, !tbaa !6
  %63 = getelementptr inbounds nuw %struct.ssl_st, ptr %62, i32 0, i32 3
  %64 = load ptr, ptr %63, align 8, !tbaa !76
  %65 = getelementptr inbounds nuw %struct.ssl_protocol_method_st, ptr %64, i32 0, i32 13
  %66 = load ptr, ptr %65, align 8, !tbaa !138
  %67 = load ptr, ptr %3, align 8, !tbaa !6
  %68 = load i64, ptr %6, align 8, !tbaa !91
  %69 = call i32 %66(ptr noundef %67, i32 noundef 22, i64 noundef %68)
  %70 = icmp ne i32 %69, 0
  br i1 %70, label %72, label %71

71:                                               ; preds = %61, %58, %45, %42, %39, %12
  call void @ERR_put_error(i32 noundef 16, i32 noundef 0, i32 noundef 68, ptr noundef @.str, i32 noundef 1166)
  call void @CBB_cleanup(ptr noundef %4)
  store i32 -1, ptr %2, align 4
  store i32 1, ptr %7, align 4
  br label %75

72:                                               ; preds = %61
  %73 = load ptr, ptr %3, align 8, !tbaa !6
  %74 = getelementptr inbounds nuw %struct.ssl_st, ptr %73, i32 0, i32 9
  store i32 8705, ptr %74, align 4, !tbaa !48
  store i32 0, ptr %7, align 4
  br label %75

75:                                               ; preds = %72, %71
  call void @llvm.lifetime.end.p0(i64 8, ptr %6) #9
  call void @llvm.lifetime.end.p0(i64 32, ptr %5) #9
  call void @llvm.lifetime.end.p0(i64 32, ptr %4) #9
  %76 = load i32, ptr %7, align 4
  switch i32 %76, label %88 [
    i32 0, label %77
    i32 1, label %86
  ]

77:                                               ; preds = %75
  br label %78

78:                                               ; preds = %77, %1
  %79 = load ptr, ptr %3, align 8, !tbaa !6
  %80 = getelementptr inbounds nuw %struct.ssl_st, ptr %79, i32 0, i32 3
  %81 = load ptr, ptr %80, align 8, !tbaa !76
  %82 = getelementptr inbounds nuw %struct.ssl_protocol_method_st, ptr %81, i32 0, i32 14
  %83 = load ptr, ptr %82, align 8, !tbaa !135
  %84 = load ptr, ptr %3, align 8, !tbaa !6
  %85 = call i32 %83(ptr noundef %84)
  store i32 %85, ptr %2, align 4
  br label %86

86:                                               ; preds = %78, %75
  %87 = load i32, ptr %2, align 4
  ret i32 %87

88:                                               ; preds = %75
  unreachable
}