; Function Attrs: nounwind uwtable
define hidden i32 @ssl3_send_certificate_status(ptr noundef %0) local_unnamed_addr #0 {
  %2 = alloca %struct.cbb_st, align 8
  %3 = alloca %struct.cbb_st, align 8
  %4 = alloca i64, align 8
  %5 = getelementptr inbounds nuw i8, ptr %0, i64 52
  %6 = load i32, ptr %5, align 4, !tbaa !43
  %7 = icmp eq i32 %6, 8704
  br i1 %7, label %8, label %44

8:                                                ; preds = %1
  call void @llvm.lifetime.start.p0(i64 32, ptr nonnull %2) #10
  call void @llvm.lifetime.start.p0(i64 32, ptr nonnull %3) #10
  call void @llvm.lifetime.start.p0(i64 8, ptr nonnull %4) #10
  call void @CBB_zero(ptr noundef nonnull %2) #10
  %9 = getelementptr inbounds nuw i8, ptr %0, i64 56
  %10 = load ptr, ptr %9, align 8, !tbaa !44
  %11 = getelementptr inbounds nuw i8, ptr %10, i64 8
  %12 = load ptr, ptr %11, align 8, !tbaa !90
  %13 = getelementptr inbounds nuw i8, ptr %0, i64 8
  %14 = load ptr, ptr %13, align 8, !tbaa !64
  %15 = getelementptr inbounds nuw i8, ptr %14, i64 96
  %16 = load i32, ptr %15, align 8, !tbaa !132
  %17 = zext i32 %16 to i64
  %18 = getelementptr inbounds nuw i8, ptr %12, i64 %17
  %19 = getelementptr inbounds nuw i8, ptr %10, i64 16
  %20 = load i64, ptr %19, align 8, !tbaa !92
  %21 = sub i64 %20, %17
  %22 = call i32 @CBB_init_fixed(ptr noundef nonnull %2, ptr noundef %18, i64 noundef %21) #10
  %.not = icmp eq i32 %22, 0
  br i1 %.not, label %43, label %23

23:                                               ; preds = %8
  %24 = call i32 @CBB_add_u8(ptr noundef nonnull %2, i8 noundef zeroext 1) #10
  %.not14 = icmp eq i32 %24, 0
  br i1 %.not14, label %43, label %25

25:                                               ; preds = %23
  %26 = call i32 @CBB_add_u24_length_prefixed(ptr noundef nonnull %2, ptr noundef nonnull %3) #10
  %.not15 = icmp eq i32 %26, 0
  br i1 %.not15, label %43, label %27

27:                                               ; preds = %25
  %28 = getelementptr inbounds nuw i8, ptr %0, i64 232
  %29 = load ptr, ptr %28, align 8, !tbaa !35
  %30 = getelementptr inbounds nuw i8, ptr %29, i64 616
  %31 = load ptr, ptr %30, align 8, !tbaa !133
  %32 = getelementptr inbounds nuw i8, ptr %29, i64 624
  %33 = load i64, ptr %32, align 8, !tbaa !134
  %34 = call i32 @CBB_add_bytes(ptr noundef nonnull %3, ptr noundef %31, i64 noundef %33) #10
  %.not16 = icmp eq i32 %34, 0
  br i1 %.not16, label %43, label %35

35:                                               ; preds = %27
  %36 = call i32 @CBB_finish(ptr noundef nonnull %2, ptr noundef null, ptr noundef nonnull %4) #10
  %.not17 = icmp eq i32 %36, 0
  br i1 %.not17, label %43, label %37

37:                                               ; preds = %35
  %38 = load ptr, ptr %13, align 8, !tbaa !64
  %39 = getelementptr inbounds nuw i8, ptr %38, i64 104
  %40 = load ptr, ptr %39, align 8, !tbaa !71
  %41 = load i64, ptr %4, align 8, !tbaa !97
  %42 = call i32 %40(ptr noundef nonnull %0, i32 noundef 22, i64 noundef %41) #10
  %.not18 = icmp eq i32 %42, 0
  br i1 %.not18, label %43, label %.thread

.thread:                                          ; preds = %37
  store i32 8705, ptr %5, align 4, !tbaa !43
  call void @llvm.lifetime.end.p0(i64 8, ptr nonnull %4) #10
  call void @llvm.lifetime.end.p0(i64 32, ptr nonnull %3) #10
  call void @llvm.lifetime.end.p0(i64 32, ptr nonnull %2) #10
  br label %44

43:                                               ; preds = %8, %23, %25, %27, %35, %37
  call void @ERR_put_error(i32 noundef 16, i32 noundef 0, i32 noundef 68, ptr noundef nonnull @.str, i32 noundef 1166) #10
  call void @CBB_cleanup(ptr noundef nonnull %2) #10
  call void @llvm.lifetime.end.p0(i64 8, ptr nonnull %4) #10
  call void @llvm.lifetime.end.p0(i64 32, ptr nonnull %3) #10
  call void @llvm.lifetime.end.p0(i64 32, ptr nonnull %2) #10
  br label %50

44:                                               ; preds = %.thread, %1
  %45 = getelementptr inbounds nuw i8, ptr %0, i64 8
  %46 = load ptr, ptr %45, align 8, !tbaa !64
  %47 = getelementptr inbounds nuw i8, ptr %46, i64 112
  %48 = load ptr, ptr %47, align 8, !tbaa !65
  %49 = call i32 %48(ptr noundef nonnull %0) #10
  br label %50

50:                                               ; preds = %43, %44
  %.1 = phi i32 [ -1, %43 ], [ %49, %44 ]
  ret i32 %.1
}